#include <math.h>
#include <stdio.h>
#include <stdlib.h>
#include <string.h>

int main()
{
	int i,j;
	char a[101];
	char d[101];
	char e[250];
	e[0]='\0';
	gets(a);
	strcat(a," ");
	for(i=0;a[i]!='\0';)
	{
		if(a[i]!=' ')
		{
			for(j=i;a[j]!=' ';)
				
			{
				d[j-i]=a[j];
				j++;
			}
			
			d[j-i]='\0';
			
			strcat(e,d);
			if(a[j+1]!='\0')
			{
				strcat(e," ");
			}
			i=j+1;
		}
		else
			i++;
		
	}
	puts(e);
	return 0;
}


