; ModuleID = '26/341.c'
source_filename = "26/341.c"
target datalayout = "e-m:e-p270:32:32-p271:32:32-p272:64:64-i64:64-f80:128-n8:16:32:64-S128"
target triple = "x86_64-pc-linux-gnu"

@.str = private unnamed_addr constant [2 x i8] c" \00", align 1

; Function Attrs: noinline nounwind uwtable
define dso_local i32 @main() #0 {
  %1 = alloca i32, align 4
  %2 = alloca i32, align 4
  %3 = alloca i32, align 4
  %4 = alloca [101 x i8], align 16
  %5 = alloca [101 x i8], align 16
  %6 = alloca [250 x i8], align 16
  store i32 0, i32* %1, align 4
  %7 = getelementptr inbounds [250 x i8], [250 x i8]* %6, i64 0, i64 0
  store i8 0, i8* %7, align 16
  %8 = getelementptr inbounds [101 x i8], [101 x i8]* %4, i64 0, i64 0
  %9 = call i32 (i8*, ...) bitcast (i32 (...)* @gets to i32 (i8*, ...)*)(i8* %8)
  %10 = getelementptr inbounds [101 x i8], [101 x i8]* %4, i64 0, i64 0
  %11 = call i8* @strcat(i8* %10, i8* getelementptr inbounds ([2 x i8], [2 x i8]* @.str, i64 0, i64 0)) #3
  store i32 0, i32* %2, align 4
  br label %12

12:                                               ; preds = %72, %0
  %13 = load i32, i32* %2, align 4
  %14 = sext i32 %13 to i64
  %15 = getelementptr inbounds [101 x i8], [101 x i8]* %4, i64 0, i64 %14
  %16 = load i8, i8* %15, align 1
  %17 = sext i8 %16 to i32
  %18 = icmp ne i32 %17, 0
  br i1 %18, label %19, label %73

19:                                               ; preds = %12
  %20 = load i32, i32* %2, align 4
  %21 = sext i32 %20 to i64
  %22 = getelementptr inbounds [101 x i8], [101 x i8]* %4, i64 0, i64 %21
  %23 = load i8, i8* %22, align 1
  %24 = sext i8 %23 to i32
  %25 = icmp ne i32 %24, 32
  br i1 %25, label %26, label %69

26:                                               ; preds = %19
  %27 = load i32, i32* %2, align 4
  store i32 %27, i32* %3, align 4
  br label %28

28:                                               ; preds = %35, %26
  %29 = load i32, i32* %3, align 4
  %30 = sext i32 %29 to i64
  %31 = getelementptr inbounds [101 x i8], [101 x i8]* %4, i64 0, i64 %30
  %32 = load i8, i8* %31, align 1
  %33 = sext i8 %32 to i32
  %34 = icmp ne i32 %33, 32
  br i1 %34, label %35, label %47

35:                                               ; preds = %28
  %36 = load i32, i32* %3, align 4
  %37 = sext i32 %36 to i64
  %38 = getelementptr inbounds [101 x i8], [101 x i8]* %4, i64 0, i64 %37
  %39 = load i8, i8* %38, align 1
  %40 = load i32, i32* %3, align 4
  %41 = load i32, i32* %2, align 4
  %42 = sub nsw i32 %40, %41
  %43 = sext i32 %42 to i64
  %44 = getelementptr inbounds [101 x i8], [101 x i8]* %5, i64 0, i64 %43
  store i8 %39, i8* %44, align 1
  %45 = load i32, i32* %3, align 4
  %46 = add nsw i32 %45, 1
  store i32 %46, i32* %3, align 4
  br label %28

47:                                               ; preds = %28
  %48 = load i32, i32* %3, align 4
  %49 = load i32, i32* %2, align 4
  %50 = sub nsw i32 %48, %49
  %51 = sext i32 %50 to i64
  %52 = getelementptr inbounds [101 x i8], [101 x i8]* %5, i64 0, i64 %51
  store i8 0, i8* %52, align 1
  %53 = getelementptr inbounds [250 x i8], [250 x i8]* %6, i64 0, i64 0
  %54 = getelementptr inbounds [101 x i8], [101 x i8]* %5, i64 0, i64 0
  %55 = call i8* @strcat(i8* %53, i8* %54) #3
  %56 = load i32, i32* %3, align 4
  %57 = add nsw i32 %56, 1
  %58 = sext i32 %57 to i64
  %59 = getelementptr inbounds [101 x i8], [101 x i8]* %4, i64 0, i64 %58
  %60 = load i8, i8* %59, align 1
  %61 = sext i8 %60 to i32
  %62 = icmp ne i32 %61, 0
  br i1 %62, label %63, label %66

63:                                               ; preds = %47
  %64 = getelementptr inbounds [250 x i8], [250 x i8]* %6, i64 0, i64 0
  %65 = call i8* @strcat(i8* %64, i8* getelementptr inbounds ([2 x i8], [2 x i8]* @.str, i64 0, i64 0)) #3
  br label %66

66:                                               ; preds = %63, %47
  %67 = load i32, i32* %3, align 4
  %68 = add nsw i32 %67, 1
  store i32 %68, i32* %2, align 4
  br label %72

69:                                               ; preds = %19
  %70 = load i32, i32* %2, align 4
  %71 = add nsw i32 %70, 1
  store i32 %71, i32* %2, align 4
  br label %72

72:                                               ; preds = %69, %66
  br label %12

73:                                               ; preds = %12
  %74 = getelementptr inbounds [250 x i8], [250 x i8]* %6, i64 0, i64 0
  %75 = call i32 @puts(i8* %74)
  ret i32 0
}

declare dso_local i32 @gets(...) #1

; Function Attrs: nounwind
declare dso_local i8* @strcat(i8*, i8*) #2

declare dso_local i32 @puts(i8*) #1


!llvm.module.flags = !{!0}
!llvm.ident = !{!1}

!0 = !{i32 1, !"wchar_size", i32 4}
!1 = !{!"clang version 10.0.0-4ubuntu1 "}
