; ModuleID = 'source-C-CXX/25/341.c'
source_filename = "source-C-CXX/25/341.c"
target datalayout = "e-m:e-p270:32:32-p271:32:32-p272:64:64-i64:64-f80:128-n8:16:32:64-S128"
target triple = "x86_64-pc-linux-gnu"

; Function Attrs: nounwind sspstrong uwtable
define dso_local i32 @main() local_unnamed_addr #0 {
  %1 = alloca [101 x i8], align 16
  %2 = alloca [101 x i8], align 16
  %3 = alloca [250 x i8], align 16
  %4 = getelementptr inbounds [101 x i8], [101 x i8]* %1, i64 0, i64 0
  call void @llvm.lifetime.start.p0i8(i64 101, i8* nonnull %4) #6
  %5 = getelementptr inbounds [101 x i8], [101 x i8]* %2, i64 0, i64 0
  call void @llvm.lifetime.start.p0i8(i64 101, i8* nonnull %5) #6
  %6 = getelementptr inbounds [250 x i8], [250 x i8]* %3, i64 0, i64 0
  call void @llvm.lifetime.start.p0i8(i64 250, i8* nonnull %6) #6
  store i8 0, i8* %6, align 16, !tbaa !5
  %7 = call i32 (i8*, ...) bitcast (i32 (...)* @gets to i32 (i8*, ...)*)(i8* nonnull %4) #6
  %8 = call i64 @strlen(i8* noundef nonnull %4)
  %9 = getelementptr [101 x i8], [101 x i8]* %1, i64 0, i64 %8
  %10 = bitcast i8* %9 to i16*
  store i16 32, i16* %10, align 1
  br label %11

11:                                               ; preds = %36, %0
  %12 = phi i32 [ 0, %0 ], [ %37, %36 ]
  %13 = sext i32 %12 to i64
  %14 = getelementptr inbounds [101 x i8], [101 x i8]* %1, i64 0, i64 %13
  %15 = load i8, i8* %14, align 1, !tbaa !5
  switch i8 %15, label %16 [
    i8 0, label %44
    i8 32, label %42
  ]

16:                                               ; preds = %11, %16
  %17 = phi i64 [ %21, %16 ], [ %13, %11 ]
  %18 = phi i8 [ %23, %16 ], [ %15, %11 ]
  %19 = sub nsw i64 %17, %13
  %20 = getelementptr inbounds [101 x i8], [101 x i8]* %2, i64 0, i64 %19
  store i8 %18, i8* %20, align 1, !tbaa !5
  %21 = add nsw i64 %17, 1
  %22 = getelementptr inbounds [101 x i8], [101 x i8]* %1, i64 0, i64 %21
  %23 = load i8, i8* %22, align 1, !tbaa !5
  %24 = icmp eq i8 %23, 32
  br i1 %24, label %25, label %16, !llvm.loop !8

25:                                               ; preds = %16
  %26 = trunc i64 %21 to i32
  %27 = sub nsw i32 %26, %12
  %28 = sext i32 %27 to i64
  %29 = getelementptr inbounds [101 x i8], [101 x i8]* %2, i64 0, i64 %28
  store i8 0, i8* %29, align 1, !tbaa !5
  %30 = call i8* @strcat(i8* noundef nonnull %6, i8* noundef nonnull %5) #6
  %31 = add nsw i32 %26, 1
  %32 = sext i32 %31 to i64
  %33 = getelementptr inbounds [101 x i8], [101 x i8]* %1, i64 0, i64 %32
  %34 = load i8, i8* %33, align 1, !tbaa !5
  %35 = icmp eq i8 %34, 0
  br i1 %35, label %36, label %38

36:                                               ; preds = %25, %38, %42
  %37 = phi i32 [ %43, %42 ], [ %31, %38 ], [ %31, %25 ]
  br label %11, !llvm.loop !10

38:                                               ; preds = %25
  %39 = call i64 @strlen(i8* noundef nonnull %6)
  %40 = getelementptr [250 x i8], [250 x i8]* %3, i64 0, i64 %39
  %41 = bitcast i8* %40 to i16*
  store i16 32, i16* %41, align 1
  br label %36

42:                                               ; preds = %11
  %43 = add nsw i32 %12, 1
  br label %36

44:                                               ; preds = %11
  %45 = call i32 @puts(i8* nonnull %6)
  call void @llvm.lifetime.end.p0i8(i64 250, i8* nonnull %6) #6
  call void @llvm.lifetime.end.p0i8(i64 101, i8* nonnull %5) #6
  call void @llvm.lifetime.end.p0i8(i64 101, i8* nonnull %4) #6
  ret i32 0
}

; Function Attrs: argmemonly mustprogress nofree nosync nounwind willreturn
declare void @llvm.lifetime.start.p0i8(i64 immarg, i8* nocapture) #1

declare i32 @gets(...) local_unnamed_addr #2

; Function Attrs: argmemonly mustprogress nofree nounwind willreturn
declare i8* @strcat(i8* noalias returned, i8* noalias nocapture readonly) local_unnamed_addr #3

; Function Attrs: nofree nounwind
declare noundef i32 @puts(i8* nocapture noundef readonly) local_unnamed_addr #4

; Function Attrs: argmemonly mustprogress nofree nosync nounwind willreturn
declare void @llvm.lifetime.end.p0i8(i64 immarg, i8* nocapture) #1

; Function Attrs: argmemonly nofree nounwind readonly willreturn
declare i64 @strlen(i8* nocapture) local_unnamed_addr #5


!llvm.module.flags = !{!0, !1, !2, !3}
!llvm.ident = !{!4}

!0 = !{i32 1, !"wchar_size", i32 4}
!1 = !{i32 7, !"PIC Level", i32 2}
!2 = !{i32 7, !"PIE Level", i32 2}
!3 = !{i32 7, !"uwtable", i32 1}
!4 = !{!"clang version 13.0.0"}
!5 = !{!6, !6, i64 0}
!6 = !{!"omnipotent char", !7, i64 0}
!7 = !{!"Simple C/C++ TBAA"}
!8 = distinct !{!8, !9}
!9 = !{!"llvm.loop.mustprogress"}
!10 = distinct !{!10, !9}
